target datalayout = "e-m:e-p270:32:32-p271:32:32-p272:64:64-i64:64-i128:128-f80:128-n8:16:32:64-S128"
target triple = "x86_64-pc-linux-gnu"

%struct.ISzAlloc = type { ptr, ptr }
%struct._CSzState = type { ptr, i64 }

; Function Attrs: nounwind uwtable
define internal i32 @SzReadByte(ptr noundef %0, ptr noundef %1) #0 {
  %3 = alloca i32, align 4
  %4 = alloca ptr, align 8
  %5 = alloca ptr, align 8
  store ptr %0, ptr %4, align 8
  store ptr %1, ptr %5, align 8
  %6 = load ptr, ptr %4, align 8
  %7 = getelementptr inbounds %struct._CSzState, ptr %6, i32 0, i32 1
  %8 = load i64, ptr %7, align 8
  %9 = icmp eq i64 %8, 0
  br i1 %9, label %10, label %11

10:                                               ; preds = %2
  store i32 16, ptr %3, align 4
  br label %22

11:                                               ; preds = %2
  %12 = load ptr, ptr %4, align 8
  %13 = getelementptr inbounds %struct._CSzState, ptr %12, i32 0, i32 1
  %14 = load i64, ptr %13, align 8
  %15 = add i64 %14, -1
  store i64 %15, ptr %13, align 8
  %16 = load ptr, ptr %4, align 8
  %17 = getelementptr inbounds %struct._CSzState, ptr %16, i32 0, i32 0
  %18 = load ptr, ptr %17, align 8
  %19 = getelementptr inbounds i8, ptr %18, i32 1
  store ptr %19, ptr %17, align 8
  %20 = load i8, ptr %18, align 1
  %21 = load ptr, ptr %5, align 8
  store i8 %20, ptr %21, align 1
  store i32 0, ptr %3, align 4
  br label %22

22:                                               ; preds = %11, %10
  %23 = load i32, ptr %3, align 4
  ret i32 %23
}

; Function Attrs: nounwind uwtable
define internal i32 @SzReadBoolVector(ptr noundef %0, i64 noundef %1, ptr noundef %2, ptr noundef %3) #0 {
  %5 = alloca i32, align 4
  %6 = alloca ptr, align 8
  %7 = alloca i64, align 8
  %8 = alloca ptr, align 8
  %9 = alloca ptr, align 8
  %10 = alloca i8, align 1
  %11 = alloca i8, align 1
  %12 = alloca i64, align 8
  %13 = alloca i32, align 4
  store ptr %0, ptr %6, align 8
  store i64 %1, ptr %7, align 8
  store ptr %2, ptr %8, align 8
  store ptr %3, ptr %9, align 8
  store i8 0, ptr %10, align 1
  store i8 0, ptr %11, align 1
  %14 = load ptr, ptr %8, align 8
  %15 = load ptr, ptr %14, align 8
  %16 = icmp ne ptr %15, null
  br i1 %16, label %17, label %18

17:                                               ; preds = %4
  store i32 11, ptr %5, align 4
  br label %73

18:                                               ; preds = %4
  %19 = load i64, ptr %7, align 8
  %20 = icmp eq i64 %19, 0
  br i1 %20, label %21, label %23

21:                                               ; preds = %18
  %22 = load ptr, ptr %8, align 8
  store ptr null, ptr %22, align 8
  br label %35

23:                                               ; preds = %18
  %24 = load ptr, ptr %9, align 8
  %25 = getelementptr inbounds %struct.ISzAlloc, ptr %24, i32 0, i32 0
  %26 = load ptr, ptr %25, align 8
  %27 = load ptr, ptr %9, align 8
  %28 = load i64, ptr %7, align 8
  %29 = mul i64 %28, 1
  %30 = call ptr %26(ptr noundef %27, i64 noundef %29)
  %31 = load ptr, ptr %8, align 8
  store ptr %30, ptr %31, align 8
  %32 = icmp eq ptr %30, null
  br i1 %32, label %33, label %34

33:                                               ; preds = %23
  store i32 2, ptr %5, align 4
  br label %73

34:                                               ; preds = %23
  br label %35

35:                                               ; preds = %34, %21
  store i64 0, ptr %12, align 8
  br label %36

36:                                               ; preds = %69, %35
  %37 = load i64, ptr %12, align 8
  %38 = load i64, ptr %7, align 8
  %39 = icmp ult i64 %37, %38
  br i1 %39, label %40, label %72

40:                                               ; preds = %36
  %41 = load i8, ptr %11, align 1
  %42 = zext i8 %41 to i32
  %43 = icmp eq i32 %42, 0
  br i1 %43, label %44, label %52

44:                                               ; preds = %40
  %45 = load ptr, ptr %6, align 8
  %46 = call i32 @SzReadByte(ptr noundef %45, ptr noundef %10)
  store i32 %46, ptr %13, align 4
  %47 = load i32, ptr %13, align 4
  %48 = icmp ne i32 %47, 0
  br i1 %48, label %49, label %51

49:                                               ; preds = %44
  %50 = load i32, ptr %13, align 4
  store i32 %50, ptr %5, align 4
  br label %73

51:                                               ; preds = %44
  store i8 -128, ptr %11, align 1
  br label %52

52:                                               ; preds = %51, %40
  %53 = load i8, ptr %10, align 1
  %54 = zext i8 %53 to i32
  %55 = load i8, ptr %11, align 1
  %56 = zext i8 %55 to i32
  %57 = and i32 %54, %56
  %58 = icmp ne i32 %57, 0
  %59 = select i1 %58, i32 1, i32 0
  %60 = trunc i32 %59 to i8
  %61 = load ptr, ptr %8, align 8
  %62 = load ptr, ptr %61, align 8
  %63 = load i64, ptr %12, align 8
  %64 = getelementptr inbounds i8, ptr %62, i64 %63
  store i8 %60, ptr %64, align 1
  %65 = load i8, ptr %11, align 1
  %66 = zext i8 %65 to i32
  %67 = ashr i32 %66, 1
  %68 = trunc i32 %67 to i8
  store i8 %68, ptr %11, align 1
  br label %69

69:                                               ; preds = %52
  %70 = load i64, ptr %12, align 8
  %71 = add i64 %70, 1
  store i64 %71, ptr %12, align 8
  br label %36

72:                                               ; preds = %36
  store i32 0, ptr %5, align 4
  br label %73

73:                                               ; preds = %72, %49, %33, %17
  %74 = load i32, ptr %5, align 4
  ret i32 %74
}