; Function Attrs: nounwind uwtable
define internal fastcc range(i32 0, 17) i32 @SzReadBoolVector(ptr noundef nonnull captures(none) %0, i64 noundef range(i64 0, 4294967296) %1, ptr noundef captures(none) %2, ptr noundef %3) unnamed_addr #0 {
  %5 = load ptr, ptr %2, align 8
  %.not = icmp eq ptr %5, null
  br i1 %.not, label %6, label %SzReadByte.exit

6:                                                ; preds = %4
  %7 = icmp eq i64 %1, 0
  br i1 %7, label %.thread, label %8

.thread:                                          ; preds = %6
  store ptr null, ptr %2, align 8
  br label %SzReadByte.exit

8:                                                ; preds = %6
  %9 = load ptr, ptr %3, align 8
  %10 = tail call ptr %9(ptr noundef nonnull %3, i64 noundef %1) #11
  store ptr %10, ptr %2, align 8
  %11 = icmp eq ptr %10, null
  br i1 %11, label %SzReadByte.exit, label %.lr.ph.preheader

.lr.ph.preheader:                                 ; preds = %8
  %12 = getelementptr inbounds nuw i8, ptr %0, i64 8
  br label %.lr.ph

.lr.ph:                                           ; preds = %.lr.ph.preheader, %21
  %.01831 = phi i64 [ %27, %21 ], [ 0, %.lr.ph.preheader ]
  %.01930 = phi i8 [ %26, %21 ], [ 0, %.lr.ph.preheader ]
  %.02429 = phi i8 [ %.125, %21 ], [ 0, %.lr.ph.preheader ]
  %13 = icmp eq i8 %.01930, 0
  br i1 %13, label %14, label %21

14:                                               ; preds = %.lr.ph
  %15 = load i64, ptr %12, align 8
  %16 = icmp eq i64 %15, 0
  br i1 %16, label %SzReadByte.exit, label %SzReadByte.exit.thread

SzReadByte.exit.thread:                           ; preds = %14
  %17 = add i64 %15, -1
  store i64 %17, ptr %12, align 8
  %18 = load ptr, ptr %0, align 8
  %19 = getelementptr inbounds nuw i8, ptr %18, i64 1
  store ptr %19, ptr %0, align 8
  %20 = load i8, ptr %18, align 1
  br label %21

21:                                               ; preds = %SzReadByte.exit.thread, %.lr.ph
  %.125 = phi i8 [ %.02429, %.lr.ph ], [ %20, %SzReadByte.exit.thread ]
  %.1 = phi i8 [ %.01930, %.lr.ph ], [ -128, %SzReadByte.exit.thread ]
  %22 = and i8 %.1, %.125
  %.not23 = icmp ne i8 %22, 0
  %23 = zext i1 %.not23 to i8
  %24 = load ptr, ptr %2, align 8
  %25 = getelementptr inbounds nuw i8, ptr %24, i64 %.01831
  store i8 %23, ptr %25, align 1
  %26 = lshr i8 %.1, 1
  %27 = add nuw nsw i64 %.01831, 1
  %exitcond.not = icmp eq i64 %27, %1
  br i1 %exitcond.not, label %SzReadByte.exit, label %.lr.ph

SzReadByte.exit:                                  ; preds = %21, %14, %.thread, %8, %4
  %.0 = phi i32 [ 11, %4 ], [ 2, %8 ], [ 0, %.thread ], [ 0, %21 ], [ 16, %14 ]
  ret i32 %.0
}